target datalayout = "e-m:e-p270:32:32-p271:32:32-p272:64:64-i64:64-i128:128-f80:128-n8:16:32:64-S128"
target triple = "x86_64-pc-linux-gnu"

; Function Attrs: nounwind uwtable
define internal i32 @math_abs(ptr noundef %0) #0 {
  %2 = alloca ptr, align 8
  %3 = alloca i64, align 8
  store ptr %0, ptr %2, align 8, !tbaa !4
  %4 = load ptr, ptr %2, align 8, !tbaa !4
  %5 = call i32 @lua_isinteger(ptr noundef %4, i32 noundef 1)
  %6 = icmp ne i32 %5, 0
  br i1 %6, label %7, label %18

7:                                                ; preds = %1
  call void @llvm.lifetime.start.p0(i64 8, ptr %3) #6
  %8 = load ptr, ptr %2, align 8, !tbaa !4
  %9 = call i64 @lua_tointegerx(ptr noundef %8, i32 noundef 1, ptr noundef null)
  store i64 %9, ptr %3, align 8, !tbaa !10
  %10 = load i64, ptr %3, align 8, !tbaa !10
  %11 = icmp slt i64 %10, 0
  br i1 %11, label %12, label %15

12:                                               ; preds = %7
  %13 = load i64, ptr %3, align 8, !tbaa !10
  %14 = sub i64 0, %13
  store i64 %14, ptr %3, align 8, !tbaa !10
  br label %15

15:                                               ; preds = %12, %7
  %16 = load ptr, ptr %2, align 8, !tbaa !4
  %17 = load i64, ptr %3, align 8, !tbaa !10
  call void @lua_pushinteger(ptr noundef %16, i64 noundef %17)
  call void @llvm.lifetime.end.p0(i64 8, ptr %3) #6
  br label %23

18:                                               ; preds = %1
  %19 = load ptr, ptr %2, align 8, !tbaa !4
  %20 = load ptr, ptr %2, align 8, !tbaa !4
  %21 = call double @luaL_checknumber(ptr noundef %20, i32 noundef 1)
  %22 = call double @llvm.fabs.f64(double %21)
  call void @lua_pushnumber(ptr noundef %19, double noundef %22)
  br label %23

23:                                               ; preds = %18, %15
  ret i32 1
}