; Function Attrs: nounwind uwtable
define internal noundef i32 @math_abs(ptr noundef %0) #0 {
  %2 = tail call i32 @lua_isinteger(ptr noundef %0, i32 noundef 1) #6
  %.not = icmp eq i32 %2, 0
  br i1 %.not, label %5, label %3

3:                                                ; preds = %1
  %4 = tail call i64 @lua_tointegerx(ptr noundef %0, i32 noundef 1, ptr noundef null) #6
  %spec.select = tail call i64 @llvm.abs.i64(i64 %4, i1 false)
  tail call void @lua_pushinteger(ptr noundef %0, i64 noundef %spec.select) #6
  br label %8

5:                                                ; preds = %1
  %6 = tail call double @luaL_checknumber(ptr noundef %0, i32 noundef 1) #6
  %7 = tail call double @llvm.fabs.f64(double %6)
  tail call void @lua_pushnumber(ptr noundef %0, double noundef %7) #6
  br label %8

8:                                                ; preds = %5, %3
  ret i32 1
}